; Function Attrs: mustprogress uwtable
define void @_ZN17DisplayFilterEdit10saveFilterEv(ptr noundef nonnull align 8 dereferenceable(352) %0) #2 align 2 personality ptr @__gxx_personality_v0 {
  %2 = alloca %class.QString, align 8
  %3 = tail call noalias noundef nonnull dereferenceable(96) ptr @_Znwm(i64 noundef 96) #20
  %4 = invoke noundef ptr @_ZNK7QWidget6windowEv(ptr noundef nonnull align 8 dereferenceable(40) %0)
          to label %5 unwind label %12

5:                                                ; preds = %1
  invoke void @_ZNK9QLineEdit4textEv(ptr dead_on_unwind nonnull writable sret(%class.QString) align 8 %2, ptr noundef nonnull align 8 dereferenceable(40) %0)
          to label %6 unwind label %12

6:                                                ; preds = %5
  invoke void @_ZN12FilterDialogC1EP7QWidgetNS_10FilterTypeE7QString(ptr noundef nonnull align 8 dereferenceable(96) %3, ptr noundef %4, i32 noundef 1, ptr noundef nonnull %2)
          to label %7 unwind label %14

7:                                                ; preds = %6
  %8 = load ptr, ptr %2, align 8
  %.not.i.i.i = icmp eq ptr %8, null
  br i1 %.not.i.i.i, label %_ZN7QStringD2Ev.exit, label %_ZN17QArrayDataPointerIDsE5derefEv.exit.i.i

_ZN17QArrayDataPointerIDsE5derefEv.exit.i.i:      ; preds = %7
  %9 = atomicrmw sub ptr %8, i32 1 seq_cst, align 4
  %.not.i.i = icmp eq i32 %9, 1
  br i1 %.not.i.i, label %10, label %_ZN7QStringD2Ev.exit

10:                                               ; preds = %_ZN17QArrayDataPointerIDsE5derefEv.exit.i.i
  %11 = load ptr, ptr %2, align 8
  call void @_ZN10QArrayData10deallocateEPS_xx(ptr noundef %11, i64 noundef 2, i64 noundef 8) #19
  br label %_ZN7QStringD2Ev.exit

_ZN7QStringD2Ev.exit:                             ; preds = %7, %_ZN17QArrayDataPointerIDsE5derefEv.exit.i.i, %10
  call void @_ZN7QWidget17setWindowModalityEN2Qt14WindowModalityE(ptr noundef nonnull align 8 dereferenceable(40) %3, i32 noundef 2)
  call void @_ZN7QWidget12setAttributeEN2Qt15WidgetAttributeEb(ptr noundef nonnull align 8 dereferenceable(40) %3, i32 noundef 55, i1 noundef zeroext true)
  call void @_ZN7QWidget4showEv(ptr noundef nonnull align 8 dereferenceable(40) %3)
  ret void

12:                                               ; preds = %5, %1
  %13 = landingpad { ptr, i32 }
          cleanup
  br label %_ZN7QStringD2Ev.exit11

14:                                               ; preds = %6
  %15 = landingpad { ptr, i32 }
          cleanup
  %16 = load ptr, ptr %2, align 8
  %.not.i.i.i8 = icmp eq ptr %16, null
  br i1 %.not.i.i.i8, label %_ZN7QStringD2Ev.exit11, label %_ZN17QArrayDataPointerIDsE5derefEv.exit.i.i9

_ZN17QArrayDataPointerIDsE5derefEv.exit.i.i9:     ; preds = %14
  %17 = atomicrmw sub ptr %16, i32 1 seq_cst, align 4
  %.not.i.i10 = icmp eq i32 %17, 1
  br i1 %.not.i.i10, label %18, label %_ZN7QStringD2Ev.exit11

18:                                               ; preds = %_ZN17QArrayDataPointerIDsE5derefEv.exit.i.i9
  %19 = load ptr, ptr %2, align 8
  call void @_ZN10QArrayData10deallocateEPS_xx(ptr noundef %19, i64 noundef 2, i64 noundef 8) #19
  br label %_ZN7QStringD2Ev.exit11

_ZN7QStringD2Ev.exit11:                           ; preds = %18, %_ZN17QArrayDataPointerIDsE5derefEv.exit.i.i9, %14, %12
  %.pn = phi { ptr, i32 } [ %13, %12 ], [ %15, %14 ], [ %15, %_ZN17QArrayDataPointerIDsE5derefEv.exit.i.i9 ], [ %15, %18 ]
  call void @_ZdlPv(ptr noundef nonnull %3) #21
  resume { ptr, i32 } %.pn
}